; Function Attrs: nounwind uwtable
define void @lv_timer_ready(ptr noundef %0) local_unnamed_addr #0 {
  %.not = icmp eq ptr %0, null
  br i1 %.not, label %.preheader, label %2

.preheader:                                       ; preds = %1, %.preheader
  br label %.preheader

2:                                                ; preds = %1
  %3 = tail call i32 @lv_tick_get() #8
  %4 = load i32, ptr %0, align 8, !tbaa !31
  %5 = xor i32 %4, -1
  %6 = add i32 %3, %5
  %7 = getelementptr inbounds nuw i8, ptr %0, i64 4
  store i32 %6, ptr %7, align 4, !tbaa !29
  ret void
}